target datalayout = "e-m:e-p270:32:32-p271:32:32-p272:64:64-i64:64-i128:128-f80:128-n8:16:32:64-S128"
target triple = "x86_64-pc-linux-gnu"

%struct.EventFilterPrivate_HandlerNode_ = type { %struct.EventHandlerRestricted_HandlerNode_, %struct.EventFilters_ }
%struct.EventHandlerRestricted_HandlerNode_ = type { %struct.HandlerNode_, %struct.EventHandlerPrivate_Data_ }
%struct.HandlerNode_ = type { i32, i32, i8, i8, i32 }
%struct.EventHandlerPrivate_Data_ = type { ptr, ptr, ptr, ptr }
%struct.EventFilters_ = type { i32, [10000 x %struct.Filter_] }
%struct.Filter_ = type { i8, %union.anon }
%union.anon = type { %struct.LocationFilter }
%struct.LocationFilter = type { ptr, ptr, i64 }
%struct.BackendGlobalData = type <{ ptr, ptr, i8, i8, i8, i8, i8, i8, i8, i8, i8, [3 x i8], i32, ptr, ptr, ptr, ptr, ptr, ptr, ptr, ptr, ptr, ptr, ptr, ptr, ptr, i32, %struct.jvmtiCapabilities, i8, [3 x i8], %struct.jvmtiEventCallbacks, ptr, ptr, ptr, ptr, ptr, ptr, ptr, i32, [4 x i8], ptr, i64, i32, [4 x i8], ptr, i32, i32, i8, i8, [6 x i8] }>
%struct.jvmtiCapabilities = type { i64, i64 }
%struct.jvmtiEventCallbacks = type { ptr, ptr, ptr, ptr, ptr, ptr, ptr, ptr, ptr, ptr, ptr, ptr, ptr, ptr, ptr, ptr, ptr, ptr, ptr, ptr, ptr, ptr, ptr, ptr, ptr, ptr, ptr, ptr, ptr, ptr, ptr, ptr, ptr, ptr, ptr, ptr, ptr, ptr, ptr }
%struct.JNINativeInterface_ = type { ptr, ptr, ptr, ptr, ptr, ptr, ptr, ptr, ptr, ptr, ptr, ptr, ptr, ptr, ptr, ptr, ptr, ptr, ptr, ptr, ptr, ptr, ptr, ptr, ptr, ptr, ptr, ptr, ptr, ptr, ptr, ptr, ptr, ptr, ptr, ptr, ptr, ptr, ptr, ptr, ptr, ptr, ptr, ptr, ptr, ptr, ptr, ptr, ptr, ptr, ptr, ptr, ptr, ptr, ptr, ptr, ptr, ptr, ptr, ptr, ptr, ptr, ptr, ptr, ptr, ptr, ptr, ptr, ptr, ptr, ptr, ptr, ptr, ptr, ptr, ptr, ptr, ptr, ptr, ptr, ptr, ptr, ptr, ptr, ptr, ptr, ptr, ptr, ptr, ptr, ptr, ptr, ptr, ptr, ptr, ptr, ptr, ptr, ptr, ptr, ptr, ptr, ptr, ptr, ptr, ptr, ptr, ptr, ptr, ptr, ptr, ptr, ptr, ptr, ptr, ptr, ptr, ptr, ptr, ptr, ptr, ptr, ptr, ptr, ptr, ptr, ptr, ptr, ptr, ptr, ptr, ptr, ptr, ptr, ptr, ptr, ptr, ptr, ptr, ptr, ptr, ptr, ptr, ptr, ptr, ptr, ptr, ptr, ptr, ptr, ptr, ptr, ptr, ptr, ptr, ptr, ptr, ptr, ptr, ptr, ptr, ptr, ptr, ptr, ptr, ptr, ptr, ptr, ptr, ptr, ptr, ptr, ptr, ptr, ptr, ptr, ptr, ptr, ptr, ptr, ptr, ptr, ptr, ptr, ptr, ptr, ptr, ptr, ptr, ptr, ptr, ptr, ptr, ptr, ptr, ptr, ptr, ptr, ptr, ptr, ptr, ptr, ptr, ptr, ptr, ptr, ptr, ptr, ptr, ptr, ptr, ptr, ptr, ptr, ptr, ptr, ptr, ptr, ptr, ptr, ptr, ptr, ptr, ptr, ptr, ptr, ptr, ptr, ptr, ptr, ptr, ptr, ptr, ptr, ptr }
%struct.ClassFilter = type { ptr }
%struct.MatchFilter = type { ptr }

@gdata = external global ptr, align 8
@.str = private unnamed_addr constant [4 x i8] c"JNI\00", align 1
@.str.1 = private unnamed_addr constant [54 x i8] c"src/jdk.jdwp.agent/share/native/libjdwp/eventFilter.c\00", align 1
@.str.2 = private unnamed_addr constant [5 x i8] c"%s()\00", align 1
@.str.3 = private unnamed_addr constant [17 x i8] c"IsAssignableFrom\00", align 1

; Function Attrs: nounwind uwtable
define internal zeroext i8 @patternStringMatch(ptr noundef %0, ptr noundef %1) #0 {
  %3 = alloca i8, align 1
  %4 = alloca ptr, align 8
  %5 = alloca ptr, align 8
  %6 = alloca i32, align 4
  %7 = alloca i32, align 4
  %8 = alloca ptr, align 8
  %9 = alloca i32, align 4
  store ptr %0, ptr %4, align 8
  store ptr %1, ptr %5, align 8
  %10 = load ptr, ptr %5, align 8
  %11 = icmp eq ptr %10, null
  br i1 %11, label %15, label %12

12:                                               ; preds = %2
  %13 = load ptr, ptr %4, align 8
  %14 = icmp eq ptr %13, null
  br i1 %14, label %15, label %16

15:                                               ; preds = %12, %2
  store i8 0, ptr %3, align 1
  br label %76

16:                                               ; preds = %12
  %17 = load ptr, ptr %5, align 8
  %18 = call i64 @strlen(ptr noundef %17) #4
  %19 = trunc i64 %18 to i32
  store i32 %19, ptr %6, align 4
  %20 = load ptr, ptr %5, align 8
  %21 = getelementptr inbounds i8, ptr %20, i64 0
  %22 = load i8, ptr %21, align 1
  %23 = sext i8 %22 to i32
  %24 = icmp ne i32 %23, 42
  br i1 %24, label %25, label %41

25:                                               ; preds = %16
  %26 = load ptr, ptr %5, align 8
  %27 = load i32, ptr %6, align 4
  %28 = sub nsw i32 %27, 1
  %29 = sext i32 %28 to i64
  %30 = getelementptr inbounds i8, ptr %26, i64 %29
  %31 = load i8, ptr %30, align 1
  %32 = sext i8 %31 to i32
  %33 = icmp ne i32 %32, 42
  br i1 %33, label %34, label %41

34:                                               ; preds = %25
  %35 = load ptr, ptr %5, align 8
  %36 = load ptr, ptr %4, align 8
  %37 = call i32 @strcmp(ptr noundef %35, ptr noundef %36) #4
  %38 = icmp eq i32 %37, 0
  %39 = zext i1 %38 to i32
  %40 = trunc i32 %39 to i8
  store i8 %40, ptr %3, align 1
  br label %76

41:                                               ; preds = %25, %16
  %42 = load i32, ptr %6, align 4
  %43 = sub nsw i32 %42, 1
  store i32 %43, ptr %7, align 4
  %44 = load ptr, ptr %4, align 8
  %45 = call i64 @strlen(ptr noundef %44) #4
  %46 = trunc i64 %45 to i32
  %47 = load i32, ptr %7, align 4
  %48 = sub nsw i32 %46, %47
  store i32 %48, ptr %9, align 4
  %49 = load i32, ptr %9, align 4
  %50 = icmp slt i32 %49, 0
  br i1 %50, label %51, label %52

51:                                               ; preds = %41
  store i8 0, ptr %3, align 1
  br label %76

52:                                               ; preds = %41
  %53 = load ptr, ptr %5, align 8
  %54 = getelementptr inbounds i8, ptr %53, i64 0
  %55 = load i8, ptr %54, align 1
  %56 = sext i8 %55 to i32
  %57 = icmp eq i32 %56, 42
  br i1 %57, label %58, label %65

58:                                               ; preds = %52
  %59 = load ptr, ptr %5, align 8
  %60 = getelementptr inbounds i8, ptr %59, i32 1
  store ptr %60, ptr %5, align 8
  %61 = load ptr, ptr %4, align 8
  %62 = load i32, ptr %9, align 4
  %63 = sext i32 %62 to i64
  %64 = getelementptr inbounds i8, ptr %61, i64 %63
  store ptr %64, ptr %8, align 8
  br label %67

65:                                               ; preds = %52
  %66 = load ptr, ptr %4, align 8
  store ptr %66, ptr %8, align 8
  br label %67

67:                                               ; preds = %65, %58
  %68 = load ptr, ptr %5, align 8
  %69 = load ptr, ptr %8, align 8
  %70 = load i32, ptr %7, align 4
  %71 = sext i32 %70 to i64
  %72 = call i32 @strncmp(ptr noundef %68, ptr noundef %69, i64 noundef %71) #4
  %73 = icmp eq i32 %72, 0
  %74 = zext i1 %73 to i32
  %75 = trunc i32 %74 to i8
  store i8 %75, ptr %3, align 1
  br label %76

76:                                               ; preds = %67, %51, %34, %15
  %77 = load i8, ptr %3, align 1
  ret i8 %77
}

; Function Attrs: nounwind uwtable
define hidden zeroext i8 @eventFilter_predictFiltering(ptr noundef %0, ptr noundef %1, ptr noundef %2) #0 {
  %4 = alloca ptr, align 8
  %5 = alloca ptr, align 8
  %6 = alloca ptr, align 8
  %7 = alloca ptr, align 8
  %8 = alloca i8, align 1
  %9 = alloca ptr, align 8
  %10 = alloca i8, align 1
  %11 = alloca i32, align 4
  %12 = alloca i32, align 4
  store ptr %0, ptr %4, align 8
  store ptr %1, ptr %5, align 8
  store ptr %2, ptr %6, align 8
  store i8 0, ptr %8, align 1
  store ptr null, ptr %7, align 8
  %13 = load ptr, ptr %4, align 8
  %14 = getelementptr inbounds %struct.EventFilterPrivate_HandlerNode_, ptr %13, i32 0, i32 1
  %15 = getelementptr inbounds %struct.EventFilters_, ptr %14, i32 0, i32 1
  %16 = getelementptr inbounds [10000 x %struct.Filter_], ptr %15, i64 0, i64 0
  store ptr %16, ptr %9, align 8
  %17 = load ptr, ptr %4, align 8
  %18 = getelementptr inbounds %struct.EventFilterPrivate_HandlerNode_, ptr %17, i32 0, i32 1
  %19 = getelementptr inbounds %struct.EventFilters_, ptr %18, i32 0, i32 0
  %20 = load i32, ptr %19, align 8
  store i32 %20, ptr %11, align 4
  store i8 0, ptr %10, align 1
  store i32 0, ptr %12, align 4
  br label %21

21:                                               ; preds = %86, %3
  %22 = load i32, ptr %12, align 4
  %23 = load i32, ptr %11, align 4
  %24 = icmp slt i32 %22, %23
  br i1 %24, label %25, label %29

25:                                               ; preds = %21
  %26 = load i8, ptr %10, align 1
  %27 = icmp ne i8 %26, 0
  %28 = xor i1 %27, true
  br label %29

29:                                               ; preds = %25, %21
  %30 = phi i1 [ false, %21 ], [ %28, %25 ]
  br i1 %30, label %31, label %91

31:                                               ; preds = %29
  %32 = load ptr, ptr %9, align 8
  %33 = getelementptr inbounds %struct.Filter_, ptr %32, i32 0, i32 0
  %34 = load i8, ptr %33, align 8
  %35 = sext i8 %34 to i32
  switch i32 %35, label %85 [
    i32 4, label %36
    i32 1, label %64
    i32 5, label %65
    i32 6, label %75
  ]

36:                                               ; preds = %31
  %37 = load ptr, ptr %7, align 8
  %38 = icmp eq ptr %37, null
  br i1 %38, label %39, label %41

39:                                               ; preds = %36
  %40 = call ptr @getEnv()
  store ptr %40, ptr %7, align 8
  br label %41

41:                                               ; preds = %39, %36
  %42 = load ptr, ptr @gdata, align 8
  %43 = getelementptr inbounds %struct.BackendGlobalData, ptr %42, i32 0, i32 38
  %44 = load i32, ptr %43, align 8
  %45 = and i32 %44, 2
  %46 = icmp ne i32 %45, 0
  br i1 %46, label %47, label %48

47:                                               ; preds = %41
  call void @log_message_begin(ptr noundef @.str, ptr noundef @.str.1, i32 noundef 650)
  call void (ptr, ...) @log_message_end(ptr noundef @.str.2, ptr noundef @.str.3)
  br label %49

48:                                               ; preds = %41
  br label %49

49:                                               ; preds = %48, %47
  %50 = load ptr, ptr %7, align 8
  %51 = load ptr, ptr %50, align 8
  %52 = getelementptr inbounds %struct.JNINativeInterface_, ptr %51, i32 0, i32 11
  %53 = load ptr, ptr %52, align 8
  %54 = load ptr, ptr %7, align 8
  %55 = load ptr, ptr %5, align 8
  %56 = load ptr, ptr %9, align 8
  %57 = getelementptr inbounds %struct.Filter_, ptr %56, i32 0, i32 1
  %58 = getelementptr inbounds %struct.ClassFilter, ptr %57, i32 0, i32 0
  %59 = load ptr, ptr %58, align 8
  %60 = call zeroext i8 %53(ptr noundef %54, ptr noundef %55, ptr noundef %59)
  %61 = icmp ne i8 %60, 0
  br i1 %61, label %63, label %62

62:                                               ; preds = %49
  store i8 1, ptr %8, align 1
  store i8 1, ptr %10, align 1
  br label %63

63:                                               ; preds = %62, %49
  br label %85

64:                                               ; preds = %31
  store i8 1, ptr %10, align 1
  br label %85

65:                                               ; preds = %31
  %66 = load ptr, ptr %6, align 8
  %67 = load ptr, ptr %9, align 8
  %68 = getelementptr inbounds %struct.Filter_, ptr %67, i32 0, i32 1
  %69 = getelementptr inbounds %struct.MatchFilter, ptr %68, i32 0, i32 0
  %70 = load ptr, ptr %69, align 8
  %71 = call zeroext i8 @patternStringMatch(ptr noundef %66, ptr noundef %70)
  %72 = icmp ne i8 %71, 0
  br i1 %72, label %74, label %73

73:                                               ; preds = %65
  store i8 1, ptr %8, align 1
  store i8 1, ptr %10, align 1
  br label %74

74:                                               ; preds = %73, %65
  br label %85

75:                                               ; preds = %31
  %76 = load ptr, ptr %6, align 8
  %77 = load ptr, ptr %9, align 8
  %78 = getelementptr inbounds %struct.Filter_, ptr %77, i32 0, i32 1
  %79 = getelementptr inbounds %struct.MatchFilter, ptr %78, i32 0, i32 0
  %80 = load ptr, ptr %79, align 8
  %81 = call zeroext i8 @patternStringMatch(ptr noundef %76, ptr noundef %80)
  %82 = icmp ne i8 %81, 0
  br i1 %82, label %83, label %84

83:                                               ; preds = %75
  store i8 1, ptr %8, align 1
  store i8 1, ptr %10, align 1
  br label %84

84:                                               ; preds = %83, %75
  br label %85

85:                                               ; preds = %84, %74, %64, %63, %31
  br label %86

86:                                               ; preds = %85
  %87 = load i32, ptr %12, align 4
  %88 = add nsw i32 %87, 1
  store i32 %88, ptr %12, align 4
  %89 = load ptr, ptr %9, align 8
  %90 = getelementptr inbounds %struct.Filter_, ptr %89, i32 1
  store ptr %90, ptr %9, align 8
  br label %21, !llvm.loop !10

91:                                               ; preds = %29
  %92 = load i8, ptr %8, align 1
  ret i8 %92
}